; Function Attrs: mustprogress nofree norecurse nosync nounwind willreturn memory(argmem: readwrite) uwtable
define internal range(i32 -1, 60) i32 @notation3(ptr noundef captures(none) %0, i32 noundef %1, ptr readnone captures(none) %2, ptr readnone captures(none) %3, ptr readnone captures(none) %4) #2 {
  switch i32 %1, label %8 [
    i32 15, label %common.exit
    i32 27, label %6
  ]

6:                                                ; preds = %5
  store ptr @declClose, ptr %0, align 8, !tbaa !3
  %7 = getelementptr inbounds nuw i8, ptr %0, i64 12
  store i32 17, ptr %7, align 4, !tbaa !15
  br label %common.exit

8:                                                ; preds = %5
  %9 = getelementptr inbounds nuw i8, ptr %0, i64 20
  %10 = load i32, ptr %9, align 4, !tbaa !9
  %11 = icmp eq i32 %10, 0
  %12 = icmp eq i32 %1, 28
  %or.cond.i = and i1 %12, %11
  br i1 %or.cond.i, label %common.exit, label %13

13:                                               ; preds = %8
  store ptr @error, ptr %0, align 8, !tbaa !3
  br label %common.exit

common.exit:                                      ; preds = %13, %8, %5, %6
  %.0 = phi i32 [ 19, %6 ], [ 17, %5 ], [ -1, %13 ], [ 59, %8 ]
  ret i32 %.0
}